; Function Attrs: mustprogress uwtable
define dso_local void @_Z26OutputGlobalVariablesDeclsRSoNSt7__cxx1112basic_stringIcSt11char_traitsIcESaIcEEE(ptr noundef nonnull align 8 dereferenceable(8) %0, ptr noundef %1) local_unnamed_addr #4 personality ptr @__gxx_personality_v0 {
  %3 = alloca %"class.std::__cxx11::basic_string", align 8
  %4 = alloca %"class.std::allocator.18", align 1
  %5 = alloca %"class.std::__cxx11::basic_string", align 8
  call void @_ZNSaIcEC1Ev(ptr noundef nonnull align 1 dereferenceable(1) %4) #19
  invoke void @_ZNSt7__cxx1112basic_stringIcSt11char_traitsIcESaIcEEC1EPKcRKS3_(ptr noundef nonnull align 8 dereferenceable(32) %3, ptr noundef nonnull @.str, ptr noundef nonnull align 1 dereferenceable(1) %4)
          to label %6 unwind label %12

6:                                                ; preds = %2
  invoke void @_Z19output_comment_lineRSoRKNSt7__cxx1112basic_stringIcSt11char_traitsIcESaIcEEE(ptr noundef nonnull align 8 dereferenceable(8) %0, ptr noundef nonnull align 8 dereferenceable(32) %3)
          to label %7 unwind label %14

7:                                                ; preds = %6
  call void @_ZNSt7__cxx1112basic_stringIcSt11char_traitsIcESaIcEED1Ev(ptr noundef nonnull align 8 dereferenceable(32) %3) #19
  call void @_ZNSaIcED1Ev(ptr noundef nonnull align 1 dereferenceable(1) %4) #19
  %8 = call noundef zeroext i1 @_ZN9CGOptions11access_onceEv()
  %9 = call noundef zeroext i1 @_ZN9CGOptions11access_onceEb(i1 noundef zeroext false)
  call void @_ZNSt7__cxx1112basic_stringIcSt11char_traitsIcESaIcEEC1ERKS4_(ptr noundef nonnull align 8 dereferenceable(32) %5, ptr noundef nonnull align 8 dereferenceable(32) %1)
  invoke void @_Z22OutputVariableDeclListRKSt6vectorIP8VariableSaIS1_EERSoNSt7__cxx1112basic_stringIcSt11char_traitsIcESaIcEEEi(ptr noundef nonnull align 8 dereferenceable(24) @_ZN16VariableSelector10GlobalListE, ptr noundef nonnull align 8 dereferenceable(8) %0, ptr noundef nonnull %5, i32 noundef 0)
          to label %10 unwind label %17

10:                                               ; preds = %7
  call void @_ZNSt7__cxx1112basic_stringIcSt11char_traitsIcESaIcEED1Ev(ptr noundef nonnull align 8 dereferenceable(32) %5) #19
  %11 = call noundef zeroext i1 @_ZN9CGOptions11access_onceEb(i1 noundef zeroext %8)
  ret void

12:                                               ; preds = %2
  %13 = landingpad { ptr, i32 }
          cleanup
  br label %16

14:                                               ; preds = %6
  %15 = landingpad { ptr, i32 }
          cleanup
  call void @_ZNSt7__cxx1112basic_stringIcSt11char_traitsIcESaIcEED1Ev(ptr noundef nonnull align 8 dereferenceable(32) %3) #19
  br label %16

16:                                               ; preds = %14, %12
  %.pn = phi { ptr, i32 } [ %15, %14 ], [ %13, %12 ]
  call void @_ZNSaIcED1Ev(ptr noundef nonnull align 1 dereferenceable(1) %4) #19
  br label %19

17:                                               ; preds = %7
  %18 = landingpad { ptr, i32 }
          cleanup
  call void @_ZNSt7__cxx1112basic_stringIcSt11char_traitsIcESaIcEED1Ev(ptr noundef nonnull align 8 dereferenceable(32) %5) #19
  br label %19

19:                                               ; preds = %17, %16
  %.pn7 = phi { ptr, i32 } [ %18, %17 ], [ %.pn, %16 ]
  resume { ptr, i32 } %.pn7
}